target datalayout = "e-m:e-p270:32:32-p271:32:32-p272:64:64-i64:64-i128:128-f80:128-n8:16:32:64-S128"
target triple = "x86_64-pc-linux-gnu"

%struct.VP8Decoder = type { i32, i32, ptr, %struct.VP8BitReader, i32, %struct.VP8FrameHeader, %struct.VP8PictureHeader, %struct.VP8FilterHeader, %struct.VP8SegmentHeader, %struct.WebPWorker, i32, i32, i32, %struct.VP8ThreadContext, i32, i32, i32, i32, i32, i32, i32, [8 x %struct.VP8BitReader], i32, %struct.VP8Random, [4 x %struct.VP8QuantMatrix], %struct.VP8Proba, i32, i8, ptr, [4 x i8], ptr, ptr, ptr, ptr, ptr, ptr, ptr, i32, i32, ptr, i64, i32, i32, ptr, i32, [4 x [2 x %struct.VP8FInfo]], ptr, ptr, i64, i32, ptr, ptr, ptr, i32 }
%struct.VP8BitReader = type { i64, i32, i32, ptr, ptr, ptr, i32 }
%struct.VP8FrameHeader = type { i8, i8, i8, i32 }
%struct.VP8PictureHeader = type { i16, i16, i8, i8, i8, i8 }
%struct.VP8FilterHeader = type { i32, i32, i32, i32, [4 x i32], [4 x i32] }
%struct.VP8SegmentHeader = type { i32, i32, i32, [4 x i8], [4 x i8] }
%struct.WebPWorker = type { ptr, i32, ptr, ptr, ptr, i32 }
%struct.VP8ThreadContext = type { i32, i32, i32, ptr, ptr, %struct.VP8Io }
%struct.VP8Io = type { i32, i32, i32, i32, i32, ptr, ptr, ptr, i32, i32, ptr, ptr, ptr, ptr, i32, i64, ptr, i32, i32, i32, i32, i32, i32, i32, i32, i32, ptr }
%struct.VP8Random = type { i32, i32, [55 x i32], i32 }
%struct.VP8QuantMatrix = type { [2 x i32], [2 x i32], [2 x i32], i32, i32 }
%struct.VP8Proba = type { [3 x i8], [4 x [8 x %struct.VP8BandProbas]], [4 x [17 x ptr]] }
%struct.VP8BandProbas = type { [3 x [11 x i8]] }
%struct.VP8FInfo = type { i8, i8, i8, i8 }

; Function Attrs: nounwind uwtable
define internal i32 @ParseFilterHeader(ptr noundef %0, ptr noundef %1) #0 {
  %3 = alloca ptr, align 8
  %4 = alloca ptr, align 8
  %5 = alloca ptr, align 8
  %6 = alloca i32, align 4
  store ptr %0, ptr %3, align 8, !tbaa !66
  store ptr %1, ptr %4, align 8, !tbaa !10
  call void @llvm.lifetime.start.p0(i64 8, ptr %5) #8
  %7 = load ptr, ptr %4, align 8, !tbaa !10
  %8 = getelementptr inbounds nuw %struct.VP8Decoder, ptr %7, i32 0, i32 7
  store ptr %8, ptr %5, align 8, !tbaa !33
  %9 = load ptr, ptr %3, align 8, !tbaa !66
  %10 = call i32 @VP8GetValue(ptr noundef %9, i32 noundef 1)
  %11 = load ptr, ptr %5, align 8, !tbaa !33
  %12 = getelementptr inbounds nuw %struct.VP8FilterHeader, ptr %11, i32 0, i32 0
  store i32 %10, ptr %12, align 4, !tbaa !78
  %13 = load ptr, ptr %3, align 8, !tbaa !66
  %14 = call i32 @VP8GetValue(ptr noundef %13, i32 noundef 6)
  %15 = load ptr, ptr %5, align 8, !tbaa !33
  %16 = getelementptr inbounds nuw %struct.VP8FilterHeader, ptr %15, i32 0, i32 1
  store i32 %14, ptr %16, align 4, !tbaa !79
  %17 = load ptr, ptr %3, align 8, !tbaa !66
  %18 = call i32 @VP8GetValue(ptr noundef %17, i32 noundef 3)
  %19 = load ptr, ptr %5, align 8, !tbaa !33
  %20 = getelementptr inbounds nuw %struct.VP8FilterHeader, ptr %19, i32 0, i32 2
  store i32 %18, ptr %20, align 4, !tbaa !80
  %21 = load ptr, ptr %3, align 8, !tbaa !66
  %22 = call i32 @VP8GetValue(ptr noundef %21, i32 noundef 1)
  %23 = load ptr, ptr %5, align 8, !tbaa !33
  %24 = getelementptr inbounds nuw %struct.VP8FilterHeader, ptr %23, i32 0, i32 3
  store i32 %22, ptr %24, align 4, !tbaa !81
  %25 = load ptr, ptr %5, align 8, !tbaa !33
  %26 = getelementptr inbounds nuw %struct.VP8FilterHeader, ptr %25, i32 0, i32 3
  %27 = load i32, ptr %26, align 4, !tbaa !81
  %28 = icmp ne i32 %27, 0
  br i1 %28, label %29, label %75

29:                                               ; preds = %2
  %30 = load ptr, ptr %3, align 8, !tbaa !66
  %31 = call i32 @VP8GetValue(ptr noundef %30, i32 noundef 1)
  %32 = icmp ne i32 %31, 0
  br i1 %32, label %33, label %74

33:                                               ; preds = %29
  call void @llvm.lifetime.start.p0(i64 4, ptr %6) #8
  store i32 0, ptr %6, align 4, !tbaa !8
  br label %34

34:                                               ; preds = %50, %33
  %35 = load i32, ptr %6, align 4, !tbaa !8
  %36 = icmp slt i32 %35, 4
  br i1 %36, label %37, label %53

37:                                               ; preds = %34
  %38 = load ptr, ptr %3, align 8, !tbaa !66
  %39 = call i32 @VP8GetValue(ptr noundef %38, i32 noundef 1)
  %40 = icmp ne i32 %39, 0
  br i1 %40, label %41, label %49

41:                                               ; preds = %37
  %42 = load ptr, ptr %3, align 8, !tbaa !66
  %43 = call i32 @VP8GetSignedValue(ptr noundef %42, i32 noundef 6)
  %44 = load ptr, ptr %5, align 8, !tbaa !33
  %45 = getelementptr inbounds nuw %struct.VP8FilterHeader, ptr %44, i32 0, i32 4
  %46 = load i32, ptr %6, align 4, !tbaa !8
  %47 = sext i32 %46 to i64
  %48 = getelementptr inbounds [4 x i32], ptr %45, i64 0, i64 %47
  store i32 %43, ptr %48, align 4, !tbaa !8
  br label %49

49:                                               ; preds = %41, %37
  br label %50

50:                                               ; preds = %49
  %51 = load i32, ptr %6, align 4, !tbaa !8
  %52 = add nsw i32 %51, 1
  store i32 %52, ptr %6, align 4, !tbaa !8
  br label %34, !llvm.loop !82

53:                                               ; preds = %34
  store i32 0, ptr %6, align 4, !tbaa !8
  br label %54

54:                                               ; preds = %70, %53
  %55 = load i32, ptr %6, align 4, !tbaa !8
  %56 = icmp slt i32 %55, 4
  br i1 %56, label %57, label %73

57:                                               ; preds = %54
  %58 = load ptr, ptr %3, align 8, !tbaa !66
  %59 = call i32 @VP8GetValue(ptr noundef %58, i32 noundef 1)
  %60 = icmp ne i32 %59, 0
  br i1 %60, label %61, label %69

61:                                               ; preds = %57
  %62 = load ptr, ptr %3, align 8, !tbaa !66
  %63 = call i32 @VP8GetSignedValue(ptr noundef %62, i32 noundef 6)
  %64 = load ptr, ptr %5, align 8, !tbaa !33
  %65 = getelementptr inbounds nuw %struct.VP8FilterHeader, ptr %64, i32 0, i32 5
  %66 = load i32, ptr %6, align 4, !tbaa !8
  %67 = sext i32 %66 to i64
  %68 = getelementptr inbounds [4 x i32], ptr %65, i64 0, i64 %67
  store i32 %63, ptr %68, align 4, !tbaa !8
  br label %69

69:                                               ; preds = %61, %57
  br label %70

70:                                               ; preds = %69
  %71 = load i32, ptr %6, align 4, !tbaa !8
  %72 = add nsw i32 %71, 1
  store i32 %72, ptr %6, align 4, !tbaa !8
  br label %54, !llvm.loop !83

73:                                               ; preds = %54
  call void @llvm.lifetime.end.p0(i64 4, ptr %6) #8
  br label %74

74:                                               ; preds = %73, %29
  br label %75

75:                                               ; preds = %74, %2
  %76 = load ptr, ptr %5, align 8, !tbaa !33
  %77 = getelementptr inbounds nuw %struct.VP8FilterHeader, ptr %76, i32 0, i32 1
  %78 = load i32, ptr %77, align 4, !tbaa !79
  %79 = icmp eq i32 %78, 0
  br i1 %79, label %80, label %81

80:                                               ; preds = %75
  br label %87

81:                                               ; preds = %75
  %82 = load ptr, ptr %5, align 8, !tbaa !33
  %83 = getelementptr inbounds nuw %struct.VP8FilterHeader, ptr %82, i32 0, i32 0
  %84 = load i32, ptr %83, align 4, !tbaa !78
  %85 = icmp ne i32 %84, 0
  %86 = select i1 %85, i32 1, i32 2
  br label %87

87:                                               ; preds = %81, %80
  %88 = phi i32 [ 0, %80 ], [ %86, %81 ]
  %89 = load ptr, ptr %4, align 8, !tbaa !10
  %90 = getelementptr inbounds nuw %struct.VP8Decoder, ptr %89, i32 0, i32 44
  store i32 %88, ptr %90, align 8, !tbaa !84
  %91 = load ptr, ptr %3, align 8, !tbaa !66
  %92 = getelementptr inbounds nuw %struct.VP8BitReader, ptr %91, i32 0, i32 6
  %93 = load i32, ptr %92, align 8, !tbaa !77
  %94 = icmp ne i32 %93, 0
  %95 = xor i1 %94, true
  %96 = zext i1 %95 to i32
  call void @llvm.lifetime.end.p0(i64 8, ptr %5) #8
  ret i32 %96
}