; Function Attrs: nounwind uwtable
define internal fastcc range(i32 0, 2) i32 @ParseFilterHeader(ptr noundef nonnull %0, ptr noundef nonnull captures(none) initializes((84, 100)) %1) unnamed_addr #3 {
  %3 = getelementptr inbounds nuw i8, ptr %1, i64 84
  %4 = tail call i32 @VP8GetValue(ptr noundef nonnull %0, i32 noundef 1) #13
  store i32 %4, ptr %3, align 4, !tbaa !67
  %5 = tail call i32 @VP8GetValue(ptr noundef nonnull %0, i32 noundef 6) #13
  %6 = getelementptr inbounds nuw i8, ptr %1, i64 88
  store i32 %5, ptr %6, align 4, !tbaa !68
  %7 = tail call i32 @VP8GetValue(ptr noundef nonnull %0, i32 noundef 3) #13
  %8 = getelementptr inbounds nuw i8, ptr %1, i64 92
  store i32 %7, ptr %8, align 4, !tbaa !69
  %9 = tail call i32 @VP8GetValue(ptr noundef nonnull %0, i32 noundef 1) #13
  %10 = getelementptr inbounds nuw i8, ptr %1, i64 96
  store i32 %9, ptr %10, align 4, !tbaa !70
  %.not = icmp eq i32 %9, 0
  br i1 %.not, label %.loopexit, label %11

11:                                               ; preds = %2
  %12 = tail call i32 @VP8GetValue(ptr noundef nonnull %0, i32 noundef 1) #13
  %.not26 = icmp eq i32 %12, 0
  br i1 %.not26, label %.loopexit, label %.preheader31

.preheader31:                                     ; preds = %11
  %13 = getelementptr inbounds nuw i8, ptr %1, i64 100
  br label %15

.preheader:                                       ; preds = %20
  %14 = getelementptr inbounds nuw i8, ptr %1, i64 116
  br label %21

15:                                               ; preds = %.preheader31, %20
  %indvars.iv = phi i64 [ 0, %.preheader31 ], [ %indvars.iv.next, %20 ]
  %16 = tail call i32 @VP8GetValue(ptr noundef nonnull %0, i32 noundef 1) #13
  %.not30 = icmp eq i32 %16, 0
  br i1 %.not30, label %20, label %17

17:                                               ; preds = %15
  %18 = tail call i32 @VP8GetSignedValue(ptr noundef nonnull %0, i32 noundef 6) #13
  %19 = getelementptr inbounds nuw [4 x i32], ptr %13, i64 0, i64 %indvars.iv
  store i32 %18, ptr %19, align 4, !tbaa !32
  br label %20

20:                                               ; preds = %15, %17
  %indvars.iv.next = add nuw nsw i64 %indvars.iv, 1
  %exitcond.not = icmp eq i64 %indvars.iv.next, 4
  br i1 %exitcond.not, label %.preheader, label %15, !llvm.loop !71

21:                                               ; preds = %.preheader, %26
  %indvars.iv35 = phi i64 [ 0, %.preheader ], [ %indvars.iv.next36, %26 ]
  %22 = tail call i32 @VP8GetValue(ptr noundef nonnull %0, i32 noundef 1) #13
  %.not29 = icmp eq i32 %22, 0
  br i1 %.not29, label %26, label %23

23:                                               ; preds = %21
  %24 = tail call i32 @VP8GetSignedValue(ptr noundef nonnull %0, i32 noundef 6) #13
  %25 = getelementptr inbounds nuw [4 x i32], ptr %14, i64 0, i64 %indvars.iv35
  store i32 %24, ptr %25, align 4, !tbaa !32
  br label %26

26:                                               ; preds = %21, %23
  %indvars.iv.next36 = add nuw nsw i64 %indvars.iv35, 1
  %exitcond38.not = icmp eq i64 %indvars.iv.next36, 4
  br i1 %exitcond38.not, label %.loopexit, label %21, !llvm.loop !72

.loopexit:                                        ; preds = %26, %11, %2
  %27 = load i32, ptr %6, align 4, !tbaa !68
  %28 = icmp eq i32 %27, 0
  br i1 %28, label %32, label %29

29:                                               ; preds = %.loopexit
  %30 = load i32, ptr %3, align 4, !tbaa !67
  %.not27 = icmp eq i32 %30, 0
  %31 = select i1 %.not27, i32 2, i32 1
  br label %32

32:                                               ; preds = %.loopexit, %29
  %33 = phi i32 [ %31, %29 ], [ 0, %.loopexit ]
  %34 = getelementptr inbounds nuw i8, ptr %1, i64 2920
  store i32 %33, ptr %34, align 8, !tbaa !73
  %35 = getelementptr inbounds nuw i8, ptr %0, i64 40
  %36 = load i32, ptr %35, align 8, !tbaa !66
  %.not28 = icmp eq i32 %36, 0
  %37 = zext i1 %.not28 to i32
  ret i32 %37
}